target datalayout = "e-m:e-p270:32:32-p271:32:32-p272:64:64-i64:64-i128:128-f80:128-n8:16:32:64-S128"
target triple = "x86_64-unknown-linux-gnu"

%struct.aiMesh = type { i32, i32, i32, ptr, ptr, ptr, ptr, [8 x ptr], [8 x ptr], [8 x i32], ptr, i32, ptr, i32, %struct.aiString, i32, ptr, i32, %struct.aiAABB, ptr }
%struct.aiString = type { i32, [1024 x i8] }
%struct.aiAABB = type { %class.aiVector3t, %class.aiVector3t }
%class.aiVector3t = type { float, float, float }
%struct.aiBone = type { %struct.aiString, i32, ptr, ptr, ptr, %class.aiMatrix4x4t }
%class.aiMatrix4x4t = type { float, float, float, float, float, float, float, float, float, float, float, float, float, float, float, float }
%struct.aiVertexWeight = type { i32, float }

; Function Attrs: mustprogress uwtable
define linkonce_odr hidden noundef zeroext i1 @_ZNK12aiMatrix4x4tIfEneERKS0_(ptr noundef nonnull align 4 dereferenceable(64) %this, ptr noundef nonnull align 4 dereferenceable(64) %m) #3 comdat align 2 {
entry:
  %this.addr = alloca ptr, align 8
  %m.addr = alloca ptr, align 8
  store ptr %this, ptr %this.addr, align 8
  store ptr %m, ptr %m.addr, align 8
  %this1 = load ptr, ptr %this.addr, align 8
  %0 = load ptr, ptr %m.addr, align 8
  %call = call noundef zeroext i1 @_ZNK12aiMatrix4x4tIfEeqERKS0_(ptr noundef nonnull align 4 dereferenceable(64) %this1, ptr noundef nonnull align 4 dereferenceable(64) %0)
  %lnot = xor i1 %call, true
  ret i1 %lnot
}

; Function Attrs: mustprogress uwtable
define hidden noundef zeroext i1 @_Z12CompareBonesPK6aiMeshS1_(ptr noundef %orig, ptr noundef %inst) #3 {
entry:
  %retval = alloca i1, align 1
  %orig.addr = alloca ptr, align 8
  %inst.addr = alloca ptr, align 8
  %i = alloca i32, align 4
  %aha = alloca ptr, align 8
  %oha = alloca ptr, align 8
  %n = alloca i32, align 4
  store ptr %orig, ptr %orig.addr, align 8
  store ptr %inst, ptr %inst.addr, align 8
  store i32 0, ptr %i, align 4
  br label %for.cond

for.cond:                                         ; preds = %for.inc29, %entry
  %0 = load i32, ptr %i, align 4
  %1 = load ptr, ptr %orig.addr, align 8
  %mNumBones = getelementptr inbounds %struct.aiMesh, ptr %1, i32 0, i32 11
  %2 = load i32, ptr %mNumBones, align 8
  %cmp = icmp ult i32 %0, %2
  br i1 %cmp, label %for.body, label %for.end31

for.body:                                         ; preds = %for.cond
  %3 = load ptr, ptr %orig.addr, align 8
  %mBones = getelementptr inbounds %struct.aiMesh, ptr %3, i32 0, i32 12
  %4 = load ptr, ptr %mBones, align 8
  %5 = load i32, ptr %i, align 4
  %idxprom = zext i32 %5 to i64
  %arrayidx = getelementptr inbounds ptr, ptr %4, i64 %idxprom
  %6 = load ptr, ptr %arrayidx, align 8
  store ptr %6, ptr %aha, align 8
  %7 = load ptr, ptr %inst.addr, align 8
  %mBones1 = getelementptr inbounds %struct.aiMesh, ptr %7, i32 0, i32 12
  %8 = load ptr, ptr %mBones1, align 8
  %9 = load i32, ptr %i, align 4
  %idxprom2 = zext i32 %9 to i64
  %arrayidx3 = getelementptr inbounds ptr, ptr %8, i64 %idxprom2
  %10 = load ptr, ptr %arrayidx3, align 8
  store ptr %10, ptr %oha, align 8
  %11 = load ptr, ptr %aha, align 8
  %mNumWeights = getelementptr inbounds %struct.aiBone, ptr %11, i32 0, i32 1
  %12 = load i32, ptr %mNumWeights, align 4
  %13 = load ptr, ptr %oha, align 8
  %mNumWeights4 = getelementptr inbounds %struct.aiBone, ptr %13, i32 0, i32 1
  %14 = load i32, ptr %mNumWeights4, align 4
  %cmp5 = icmp ne i32 %12, %14
  br i1 %cmp5, label %if.then, label %lor.lhs.false

lor.lhs.false:                                    ; preds = %for.body
  %15 = load ptr, ptr %aha, align 8
  %mOffsetMatrix = getelementptr inbounds %struct.aiBone, ptr %15, i32 0, i32 5
  %16 = load ptr, ptr %oha, align 8
  %mOffsetMatrix6 = getelementptr inbounds %struct.aiBone, ptr %16, i32 0, i32 5
  %call = call noundef zeroext i1 @_ZNK12aiMatrix4x4tIfEneERKS0_(ptr noundef nonnull align 4 dereferenceable(64) %mOffsetMatrix, ptr noundef nonnull align 4 dereferenceable(64) %mOffsetMatrix6)
  br i1 %call, label %if.then, label %if.end

if.then:                                          ; preds = %lor.lhs.false, %for.body
  store i1 false, ptr %retval, align 1
  br label %return

if.end:                                           ; preds = %lor.lhs.false
  store i32 0, ptr %n, align 4
  br label %for.cond7

for.cond7:                                        ; preds = %for.inc, %if.end
  %17 = load i32, ptr %n, align 4
  %18 = load ptr, ptr %aha, align 8
  %mNumWeights8 = getelementptr inbounds %struct.aiBone, ptr %18, i32 0, i32 1
  %19 = load i32, ptr %mNumWeights8, align 4
  %cmp9 = icmp ult i32 %17, %19
  br i1 %cmp9, label %for.body10, label %for.end

for.body10:                                       ; preds = %for.cond7
  %20 = load ptr, ptr %aha, align 8
  %mWeights = getelementptr inbounds %struct.aiBone, ptr %20, i32 0, i32 4
  %21 = load ptr, ptr %mWeights, align 8
  %22 = load i32, ptr %n, align 4
  %idxprom11 = zext i32 %22 to i64
  %arrayidx12 = getelementptr inbounds %struct.aiVertexWeight, ptr %21, i64 %idxprom11
  %mVertexId = getelementptr inbounds %struct.aiVertexWeight, ptr %arrayidx12, i32 0, i32 0
  %23 = load i32, ptr %mVertexId, align 4
  %24 = load ptr, ptr %oha, align 8
  %mWeights13 = getelementptr inbounds %struct.aiBone, ptr %24, i32 0, i32 4
  %25 = load ptr, ptr %mWeights13, align 8
  %26 = load i32, ptr %n, align 4
  %idxprom14 = zext i32 %26 to i64
  %arrayidx15 = getelementptr inbounds %struct.aiVertexWeight, ptr %25, i64 %idxprom14
  %mVertexId16 = getelementptr inbounds %struct.aiVertexWeight, ptr %arrayidx15, i32 0, i32 0
  %27 = load i32, ptr %mVertexId16, align 4
  %cmp17 = icmp ne i32 %23, %27
  br i1 %cmp17, label %if.then27, label %lor.lhs.false18

lor.lhs.false18:                                  ; preds = %for.body10
  %28 = load ptr, ptr %aha, align 8
  %mWeights19 = getelementptr inbounds %struct.aiBone, ptr %28, i32 0, i32 4
  %29 = load ptr, ptr %mWeights19, align 8
  %30 = load i32, ptr %n, align 4
  %idxprom20 = zext i32 %30 to i64
  %arrayidx21 = getelementptr inbounds %struct.aiVertexWeight, ptr %29, i64 %idxprom20
  %mWeight = getelementptr inbounds %struct.aiVertexWeight, ptr %arrayidx21, i32 0, i32 1
  %31 = load float, ptr %mWeight, align 4
  %32 = load ptr, ptr %oha, align 8
  %mWeights22 = getelementptr inbounds %struct.aiBone, ptr %32, i32 0, i32 4
  %33 = load ptr, ptr %mWeights22, align 8
  %34 = load i32, ptr %n, align 4
  %idxprom23 = zext i32 %34 to i64
  %arrayidx24 = getelementptr inbounds %struct.aiVertexWeight, ptr %33, i64 %idxprom23
  %mWeight25 = getelementptr inbounds %struct.aiVertexWeight, ptr %arrayidx24, i32 0, i32 1
  %35 = load float, ptr %mWeight25, align 4
  %sub = fsub float %31, %35
  %cmp26 = fcmp olt float %sub, 0x3F847AE140000000
  br i1 %cmp26, label %if.then27, label %if.end28

if.then27:                                        ; preds = %lor.lhs.false18, %for.body10
  store i1 false, ptr %retval, align 1
  br label %return

if.end28:                                         ; preds = %lor.lhs.false18
  br label %for.inc

for.inc:                                          ; preds = %if.end28
  %36 = load i32, ptr %n, align 4
  %inc = add i32 %36, 1
  store i32 %inc, ptr %n, align 4
  br label %for.cond7, !llvm.loop !4

for.end:                                          ; preds = %for.cond7
  br label %for.inc29

for.inc29:                                        ; preds = %for.end
  %37 = load i32, ptr %i, align 4
  %inc30 = add i32 %37, 1
  store i32 %inc30, ptr %i, align 4
  br label %for.cond, !llvm.loop !6

for.end31:                                        ; preds = %for.cond
  store i1 true, ptr %retval, align 1
  br label %return

return:                                           ; preds = %for.end31, %if.then27, %if.then
  %38 = load i1, ptr %retval, align 1
  ret i1 %38
}