; Function Attrs: mustprogress nounwind uwtable
define hidden noundef zeroext i1 @_Z12CompareBonesPK6aiMeshS1_(ptr nocapture noundef readonly %orig, ptr nocapture noundef readonly %inst) local_unnamed_addr #0 {
entry:
  %mNumBones = getelementptr inbounds i8, ptr %orig, i64 216
  %0 = load i32, ptr %mNumBones, align 8
  %cmp22 = icmp eq i32 %0, 0
  br i1 %cmp22, label %return, label %for.body.lr.ph

for.body.lr.ph:                                   ; preds = %entry
  %mBones = getelementptr inbounds i8, ptr %orig, i64 224
  %mBones1 = getelementptr inbounds i8, ptr %inst, i64 224
  br label %for.body

for.body:                                         ; preds = %for.body.lr.ph, %for.inc29
  %i.023 = phi i32 [ 0, %for.body.lr.ph ], [ %inc30, %for.inc29 ]
  %1 = load ptr, ptr %mBones, align 8
  %idxprom = zext i32 %i.023 to i64
  %arrayidx = getelementptr inbounds ptr, ptr %1, i64 %idxprom
  %2 = load ptr, ptr %arrayidx, align 8
  %3 = load ptr, ptr %mBones1, align 8
  %arrayidx3 = getelementptr inbounds ptr, ptr %3, i64 %idxprom
  %4 = load ptr, ptr %arrayidx3, align 8
  %mNumWeights = getelementptr inbounds i8, ptr %2, i64 1028
  %5 = load i32, ptr %mNumWeights, align 4
  %mNumWeights4 = getelementptr inbounds i8, ptr %4, i64 1028
  %6 = load i32, ptr %mNumWeights4, align 4
  %cmp5.not = icmp eq i32 %5, %6
  br i1 %cmp5.not, label %lor.lhs.false, label %return

lor.lhs.false:                                    ; preds = %for.body
  %mOffsetMatrix = getelementptr inbounds i8, ptr %2, i64 1056
  %mOffsetMatrix6 = getelementptr inbounds i8, ptr %4, i64 1056
  %call.i = tail call noundef zeroext i1 @_ZNK12aiMatrix4x4tIfEeqERKS0_(ptr noundef nonnull align 4 dereferenceable(64) %mOffsetMatrix, ptr noundef nonnull align 4 dereferenceable(64) %mOffsetMatrix6)
  br i1 %call.i, label %for.cond7.preheader, label %return

for.cond7.preheader:                              ; preds = %lor.lhs.false
  %7 = load i32, ptr %mNumWeights, align 4
  %cmp920.not = icmp eq i32 %7, 0
  br i1 %cmp920.not, label %for.inc29, label %for.body10.lr.ph

for.body10.lr.ph:                                 ; preds = %for.cond7.preheader
  %mWeights = getelementptr inbounds i8, ptr %2, i64 1048
  %8 = load ptr, ptr %mWeights, align 8
  %mWeights13 = getelementptr inbounds i8, ptr %4, i64 1048
  %9 = load ptr, ptr %mWeights13, align 8
  %wide.trip.count = zext i32 %7 to i64
  br label %for.body10

for.cond7:                                        ; preds = %lor.lhs.false18
  %indvars.iv.next = add nuw nsw i64 %indvars.iv, 1
  %exitcond.not = icmp eq i64 %indvars.iv.next, %wide.trip.count
  br i1 %exitcond.not, label %for.inc29, label %for.body10, !llvm.loop !4

for.body10:                                       ; preds = %for.body10.lr.ph, %for.cond7
  %indvars.iv = phi i64 [ 0, %for.body10.lr.ph ], [ %indvars.iv.next, %for.cond7 ]
  %arrayidx12 = getelementptr inbounds %struct.aiVertexWeight, ptr %8, i64 %indvars.iv
  %10 = load i32, ptr %arrayidx12, align 4
  %arrayidx15 = getelementptr inbounds %struct.aiVertexWeight, ptr %9, i64 %indvars.iv
  %11 = load i32, ptr %arrayidx15, align 4
  %cmp17.not = icmp eq i32 %10, %11
  br i1 %cmp17.not, label %lor.lhs.false18, label %return

lor.lhs.false18:                                  ; preds = %for.body10
  %mWeight = getelementptr inbounds i8, ptr %arrayidx12, i64 4
  %12 = load float, ptr %mWeight, align 4
  %mWeight25 = getelementptr inbounds i8, ptr %arrayidx15, i64 4
  %13 = load float, ptr %mWeight25, align 4
  %sub = fsub float %12, %13
  %cmp26 = fcmp olt float %sub, 0x3F847AE140000000
  br i1 %cmp26, label %return, label %for.cond7

for.inc29:                                        ; preds = %for.cond7, %for.cond7.preheader
  %inc30 = add nuw i32 %i.023, 1
  %14 = load i32, ptr %mNumBones, align 8
  %cmp.not = icmp ult i32 %inc30, %14
  br i1 %cmp.not, label %for.body, label %return, !llvm.loop !6

return:                                           ; preds = %lor.lhs.false, %for.body, %for.inc29, %for.body10, %lor.lhs.false18, %entry
  %cmp19 = phi i1 [ true, %entry ], [ false, %lor.lhs.false18 ], [ false, %for.body10 ], [ false, %lor.lhs.false ], [ false, %for.body ], [ true, %for.inc29 ]
  ret i1 %cmp19
}